target datalayout = "e-m:e-p270:32:32-p271:32:32-p272:64:64-i64:64-i128:128-f80:128-n8:16:32:64-S128"
target triple = "x86_64-pc-linux-gnu"

%struct.FunctionCallInfoBaseData = type { ptr, ptr, ptr, i32, i8, i16, [0 x %struct.NullableDatum] }
%struct.NullableDatum = type { i64, i8 }
%struct.ErrorSaveContext = type { i32, i8, i8, ptr }

@__const.to_regclass.escontext = private unnamed_addr constant { i32, i8, i8, [2 x i8], ptr } { i32 446, i8 0, i8 0, [2 x i8] zeroinitializer, ptr null }, align 8

; Function Attrs: inlinehint nounwind uwtable
define internal ptr @DatumGetPointer(i64 noundef %0) #2 {
  %2 = alloca i64, align 8
  store i64 %0, ptr %2, align 8
  %3 = load i64, ptr %2, align 8
  %4 = inttoptr i64 %3 to ptr
  ret ptr %4
}

; Function Attrs: nounwind uwtable
define dso_local i64 @to_regclass(ptr noundef %0) #0 {
  %2 = alloca i64, align 8
  %3 = alloca ptr, align 8
  %4 = alloca ptr, align 8
  %5 = alloca i64, align 8
  %6 = alloca %struct.ErrorSaveContext, align 8
  %7 = alloca i32, align 4
  store ptr %0, ptr %3, align 8
  call void @llvm.lifetime.start.p0(i64 8, ptr %4) #8
  %8 = load ptr, ptr %3, align 8
  %9 = getelementptr inbounds nuw %struct.FunctionCallInfoBaseData, ptr %8, i32 0, i32 6
  %10 = getelementptr inbounds [0 x %struct.NullableDatum], ptr %9, i64 0, i64 0
  %11 = getelementptr inbounds nuw %struct.NullableDatum, ptr %10, i32 0, i32 0
  %12 = load i64, ptr %11, align 8
  %13 = call ptr @DatumGetPointer(i64 noundef %12)
  %14 = call ptr @pg_detoast_datum_packed(ptr noundef %13)
  %15 = call ptr @text_to_cstring(ptr noundef %14)
  store ptr %15, ptr %4, align 8
  call void @llvm.lifetime.start.p0(i64 8, ptr %5) #8
  call void @llvm.lifetime.start.p0(i64 16, ptr %6) #8
  call void @llvm.memcpy.p0.p0.i64(ptr align 8 %6, ptr align 8 @__const.to_regclass.escontext, i64 16, i1 false)
  %16 = load ptr, ptr %4, align 8
  %17 = call zeroext i1 @DirectInputFunctionCallSafe(ptr noundef @regclassin, ptr noundef %16, i32 noundef 0, i32 noundef -1, ptr noundef %6, ptr noundef %5)
  br i1 %17, label %24, label %18

18:                                               ; preds = %1
  br label %19

19:                                               ; preds = %18
  %20 = load ptr, ptr %3, align 8
  %21 = getelementptr inbounds nuw %struct.FunctionCallInfoBaseData, ptr %20, i32 0, i32 4
  store i8 1, ptr %21, align 4
  store i64 0, ptr %2, align 8
  store i32 1, ptr %7, align 4
  br label %26

22:                                               ; No predecessors!
  br label %23

23:                                               ; preds = %22
  br label %24

24:                                               ; preds = %23, %1
  %25 = load i64, ptr %5, align 8
  store i64 %25, ptr %2, align 8
  store i32 1, ptr %7, align 4
  br label %26

26:                                               ; preds = %24, %19
  call void @llvm.lifetime.end.p0(i64 16, ptr %6) #8
  call void @llvm.lifetime.end.p0(i64 8, ptr %5) #8
  call void @llvm.lifetime.end.p0(i64 8, ptr %4) #8
  %27 = load i64, ptr %2, align 8
  ret i64 %27
}